target datalayout = "e-m:e-p270:32:32-p271:32:32-p272:64:64-i64:64-i128:128-f80:128-n8:16:32:64-S128"
target triple = "x86_64-pc-linux-gnu"

%struct.htbl_t = type { i64, i64, i64, i64 }
%union.anon.0 = type { ptr }

; Function Attrs: nounwind uwtable
define internal i32 @H5PT_close(ptr noundef %0) #0 {
  %2 = alloca i32, align 4
  %3 = alloca ptr, align 8
  %4 = alloca i32, align 4
  %5 = alloca %union.anon.0, align 8
  %6 = alloca ptr, align 8
  store ptr %0, ptr %3, align 8, !tbaa !10
  %7 = load ptr, ptr %3, align 8, !tbaa !10
  %8 = icmp eq ptr %7, null
  br i1 %8, label %9, label %10

9:                                                ; preds = %1
  br label %26

10:                                               ; preds = %1
  %11 = load ptr, ptr %3, align 8, !tbaa !10
  %12 = getelementptr inbounds nuw %struct.htbl_t, ptr %11, i32 0, i32 0
  %13 = load i64, ptr %12, align 8, !tbaa !13
  %14 = call i32 @H5Dclose(i64 noundef %13)
  %15 = icmp slt i32 %14, 0
  br i1 %15, label %16, label %17

16:                                               ; preds = %10
  br label %26

17:                                               ; preds = %10
  %18 = load ptr, ptr %3, align 8, !tbaa !10
  %19 = getelementptr inbounds nuw %struct.htbl_t, ptr %18, i32 0, i32 1
  %20 = load i64, ptr %19, align 8, !tbaa !15
  %21 = call i32 @H5Tclose(i64 noundef %20)
  %22 = icmp slt i32 %21, 0
  br i1 %22, label %23, label %24

23:                                               ; preds = %17
  br label %26

24:                                               ; preds = %17
  %25 = load ptr, ptr %3, align 8, !tbaa !10
  call void @free(ptr noundef %25) #6
  store i32 0, ptr %2, align 4
  br label %61

26:                                               ; preds = %23, %16, %9
  %27 = load ptr, ptr %3, align 8, !tbaa !10
  %28 = icmp ne ptr %27, null
  br i1 %28, label %29, label %60

29:                                               ; preds = %26
  call void @llvm.lifetime.start.p0(i64 4, ptr %4) #6
  call void @llvm.lifetime.start.p0(i64 8, ptr %5) #6
  call void @llvm.lifetime.start.p0(i64 8, ptr %6) #6
  %30 = call i32 @H5Eauto_is_v2(i64 noundef 0, ptr noundef %4)
  %31 = load i32, ptr %4, align 4, !tbaa !11
  %32 = icmp ne i32 %31, 0
  br i1 %32, label %33, label %36

33:                                               ; preds = %29
  %34 = call i32 @H5Eget_auto2(i64 noundef 0, ptr noundef %5, ptr noundef %6)
  %35 = call i32 @H5Eset_auto2(i64 noundef 0, ptr noundef null, ptr noundef null)
  br label %39

36:                                               ; preds = %29
  %37 = call i32 @H5Eget_auto1(ptr noundef %5, ptr noundef %6)
  %38 = call i32 @H5Eset_auto1(ptr noundef null, ptr noundef null)
  br label %39

39:                                               ; preds = %36, %33
  %40 = load ptr, ptr %3, align 8, !tbaa !10
  %41 = getelementptr inbounds nuw %struct.htbl_t, ptr %40, i32 0, i32 0
  %42 = load i64, ptr %41, align 8, !tbaa !13
  %43 = call i32 @H5Dclose(i64 noundef %42)
  %44 = load ptr, ptr %3, align 8, !tbaa !10
  %45 = getelementptr inbounds nuw %struct.htbl_t, ptr %44, i32 0, i32 1
  %46 = load i64, ptr %45, align 8, !tbaa !15
  %47 = call i32 @H5Tclose(i64 noundef %46)
  %48 = load i32, ptr %4, align 4, !tbaa !11
  %49 = icmp ne i32 %48, 0
  br i1 %49, label %50, label %54

50:                                               ; preds = %39
  %51 = load ptr, ptr %5, align 8, !tbaa !22
  %52 = load ptr, ptr %6, align 8, !tbaa !10
  %53 = call i32 @H5Eset_auto2(i64 noundef 0, ptr noundef %51, ptr noundef %52)
  br label %58

54:                                               ; preds = %39
  %55 = load ptr, ptr %5, align 8, !tbaa !22
  %56 = load ptr, ptr %6, align 8, !tbaa !10
  %57 = call i32 @H5Eset_auto1(ptr noundef %55, ptr noundef %56)
  br label %58

58:                                               ; preds = %54, %50
  call void @llvm.lifetime.end.p0(i64 8, ptr %6) #6
  call void @llvm.lifetime.end.p0(i64 8, ptr %5) #6
  call void @llvm.lifetime.end.p0(i64 4, ptr %4) #6
  %59 = load ptr, ptr %3, align 8, !tbaa !10
  call void @free(ptr noundef %59) #6
  br label %60

60:                                               ; preds = %58, %26
  store i32 -1, ptr %2, align 4
  br label %61

61:                                               ; preds = %60, %24
  %62 = load i32, ptr %2, align 4
  ret i32 %62
}