; Function Attrs: nounwind uwtable
define internal fastcc range(i32 -1, 1) i32 @H5PT_close(ptr noundef nonnull captures(none) %0) unnamed_addr #0 {
  %2 = alloca i32, align 4
  %3 = alloca %union.anon.0, align 8
  %4 = alloca ptr, align 8
  %5 = load i64, ptr %0, align 8, !tbaa !14
  %6 = tail call i32 @H5Dclose(i64 noundef %5) #7
  %7 = icmp slt i32 %6, 0
  br i1 %7, label %14, label %8

8:                                                ; preds = %1
  %9 = getelementptr inbounds nuw i8, ptr %0, i64 8
  %10 = load i64, ptr %9, align 8, !tbaa !16
  %11 = tail call i32 @H5Tclose(i64 noundef %10) #7
  %12 = icmp slt i32 %11, 0
  br i1 %12, label %14, label %13

13:                                               ; preds = %8
  tail call void @free(ptr noundef nonnull %0) #7
  br label %37

14:                                               ; preds = %1, %8
  call void @llvm.lifetime.start.p0(i64 4, ptr nonnull %2) #7
  call void @llvm.lifetime.start.p0(i64 8, ptr nonnull %3) #7
  call void @llvm.lifetime.start.p0(i64 8, ptr nonnull %4) #7
  %15 = call i32 @H5Eauto_is_v2(i64 noundef 0, ptr noundef nonnull %2) #7
  %16 = load i32, ptr %2, align 4, !tbaa !3
  %.not = icmp eq i32 %16, 0
  br i1 %.not, label %20, label %17

17:                                               ; preds = %14
  %18 = call i32 @H5Eget_auto2(i64 noundef 0, ptr noundef nonnull %3, ptr noundef nonnull %4) #7
  %19 = call i32 @H5Eset_auto2(i64 noundef 0, ptr noundef null, ptr noundef null) #7
  br label %23

20:                                               ; preds = %14
  %21 = call i32 @H5Eget_auto1(ptr noundef nonnull %3, ptr noundef nonnull %4) #7
  %22 = call i32 @H5Eset_auto1(ptr noundef null, ptr noundef null) #7
  br label %23

23:                                               ; preds = %20, %17
  %24 = load i64, ptr %0, align 8, !tbaa !14
  %25 = call i32 @H5Dclose(i64 noundef %24) #7
  %26 = getelementptr inbounds nuw i8, ptr %0, i64 8
  %27 = load i64, ptr %26, align 8, !tbaa !16
  %28 = call i32 @H5Tclose(i64 noundef %27) #7
  %29 = load i32, ptr %2, align 4, !tbaa !3
  %.not9 = icmp eq i32 %29, 0
  %30 = load ptr, ptr %3, align 8, !tbaa !17
  %31 = load ptr, ptr %4, align 8, !tbaa !18
  br i1 %.not9, label %34, label %32

32:                                               ; preds = %23
  %33 = call i32 @H5Eset_auto2(i64 noundef 0, ptr noundef %30, ptr noundef %31) #7
  br label %36

34:                                               ; preds = %23
  %35 = call i32 @H5Eset_auto1(ptr noundef %30, ptr noundef %31) #7
  br label %36

36:                                               ; preds = %34, %32
  call void @llvm.lifetime.end.p0(i64 8, ptr nonnull %4) #7
  call void @llvm.lifetime.end.p0(i64 8, ptr nonnull %3) #7
  call void @llvm.lifetime.end.p0(i64 4, ptr nonnull %2) #7
  call void @free(ptr noundef nonnull %0) #7
  br label %37

37:                                               ; preds = %36, %13
  %.0 = phi i32 [ -1, %36 ], [ 0, %13 ]
  ret i32 %.0
}